target datalayout = "e-m:e-p270:32:32-p271:32:32-p272:64:64-i64:64-i128:128-f80:128-n8:16:32:64-S128"
target triple = "x86_64-pc-linux-gnu"

%struct.mbedtls_ecp_group = type { i32, %struct.mbedtls_mpi, %struct.mbedtls_mpi, %struct.mbedtls_mpi, %struct.mbedtls_ecp_point, %struct.mbedtls_mpi, i64, i64, i32, ptr, ptr, ptr, ptr, ptr, i64 }
%struct.mbedtls_ecp_point = type { %struct.mbedtls_mpi, %struct.mbedtls_mpi, %struct.mbedtls_mpi }
%struct.mbedtls_mpi = type { ptr, i16, i16 }

; Function Attrs: nounwind uwtable
define internal i32 @ecp_randomize_jac(ptr noundef %0, ptr noundef %1, ptr noundef %2, ptr noundef %3) #0 {
  %5 = alloca ptr, align 8
  %6 = alloca ptr, align 8
  %7 = alloca ptr, align 8
  %8 = alloca ptr, align 8
  %9 = alloca i32, align 4
  %10 = alloca %struct.mbedtls_mpi, align 8
  store ptr %0, ptr %5, align 8, !tbaa !25
  store ptr %1, ptr %6, align 8, !tbaa !34
  store ptr %2, ptr %7, align 8, !tbaa !55
  store ptr %3, ptr %8, align 8, !tbaa !55
  call void @llvm.lifetime.start.p0(i64 4, ptr %9) #11
  store i32 -110, ptr %9, align 4, !tbaa !3
  call void @llvm.lifetime.start.p0(i64 16, ptr %10) #11
  call void @mbedtls_mpi_init(ptr noundef %10)
  br label %11

11:                                               ; preds = %4
  %12 = load ptr, ptr %5, align 8, !tbaa !25
  %13 = getelementptr inbounds nuw %struct.mbedtls_ecp_group, ptr %12, i32 0, i32 1
  %14 = load ptr, ptr %7, align 8, !tbaa !55
  %15 = load ptr, ptr %8, align 8, !tbaa !55
  %16 = call i32 @mbedtls_mpi_random(ptr noundef %10, i64 noundef 2, ptr noundef %13, ptr noundef %14, ptr noundef %15)
  store i32 %16, ptr %9, align 4, !tbaa !3
  %17 = icmp ne i32 %16, 0
  br i1 %17, label %18, label %19

18:                                               ; preds = %11
  br label %78

19:                                               ; preds = %11
  br label %20

20:                                               ; preds = %19
  br label %21

21:                                               ; preds = %20
  br label %22

22:                                               ; preds = %21
  %23 = load ptr, ptr %5, align 8, !tbaa !25
  %24 = load ptr, ptr %6, align 8, !tbaa !34
  %25 = getelementptr inbounds nuw %struct.mbedtls_ecp_point, ptr %24, i32 0, i32 2
  %26 = load ptr, ptr %6, align 8, !tbaa !34
  %27 = getelementptr inbounds nuw %struct.mbedtls_ecp_point, ptr %26, i32 0, i32 2
  %28 = call i32 @mbedtls_mpi_mul_mod(ptr noundef %23, ptr noundef %25, ptr noundef %27, ptr noundef %10)
  store i32 %28, ptr %9, align 4, !tbaa !3
  %29 = icmp ne i32 %28, 0
  br i1 %29, label %30, label %31

30:                                               ; preds = %22
  br label %78

31:                                               ; preds = %22
  br label %32

32:                                               ; preds = %31
  br label %33

33:                                               ; preds = %32
  br label %34

34:                                               ; preds = %33
  %35 = load ptr, ptr %5, align 8, !tbaa !25
  %36 = load ptr, ptr %6, align 8, !tbaa !34
  %37 = getelementptr inbounds nuw %struct.mbedtls_ecp_point, ptr %36, i32 0, i32 1
  %38 = load ptr, ptr %6, align 8, !tbaa !34
  %39 = getelementptr inbounds nuw %struct.mbedtls_ecp_point, ptr %38, i32 0, i32 1
  %40 = call i32 @mbedtls_mpi_mul_mod(ptr noundef %35, ptr noundef %37, ptr noundef %39, ptr noundef %10)
  store i32 %40, ptr %9, align 4, !tbaa !3
  %41 = icmp ne i32 %40, 0
  br i1 %41, label %42, label %43

42:                                               ; preds = %34
  br label %78

43:                                               ; preds = %34
  br label %44

44:                                               ; preds = %43
  br label %45

45:                                               ; preds = %44
  br label %46

46:                                               ; preds = %45
  %47 = load ptr, ptr %5, align 8, !tbaa !25
  %48 = call i32 @mbedtls_mpi_mul_mod(ptr noundef %47, ptr noundef %10, ptr noundef %10, ptr noundef %10)
  store i32 %48, ptr %9, align 4, !tbaa !3
  %49 = icmp ne i32 %48, 0
  br i1 %49, label %50, label %51

50:                                               ; preds = %46
  br label %78

51:                                               ; preds = %46
  br label %52

52:                                               ; preds = %51
  br label %53

53:                                               ; preds = %52
  br label %54

54:                                               ; preds = %53
  %55 = load ptr, ptr %5, align 8, !tbaa !25
  %56 = load ptr, ptr %6, align 8, !tbaa !34
  %57 = getelementptr inbounds nuw %struct.mbedtls_ecp_point, ptr %56, i32 0, i32 0
  %58 = load ptr, ptr %6, align 8, !tbaa !34
  %59 = getelementptr inbounds nuw %struct.mbedtls_ecp_point, ptr %58, i32 0, i32 0
  %60 = call i32 @mbedtls_mpi_mul_mod(ptr noundef %55, ptr noundef %57, ptr noundef %59, ptr noundef %10)
  store i32 %60, ptr %9, align 4, !tbaa !3
  %61 = icmp ne i32 %60, 0
  br i1 %61, label %62, label %63

62:                                               ; preds = %54
  br label %78

63:                                               ; preds = %54
  br label %64

64:                                               ; preds = %63
  br label %65

65:                                               ; preds = %64
  br label %66

66:                                               ; preds = %65
  %67 = load ptr, ptr %5, align 8, !tbaa !25
  %68 = load ptr, ptr %6, align 8, !tbaa !34
  %69 = getelementptr inbounds nuw %struct.mbedtls_ecp_point, ptr %68, i32 0, i32 1
  %70 = load ptr, ptr %6, align 8, !tbaa !34
  %71 = getelementptr inbounds nuw %struct.mbedtls_ecp_point, ptr %70, i32 0, i32 1
  %72 = call i32 @mbedtls_mpi_mul_mod(ptr noundef %67, ptr noundef %69, ptr noundef %71, ptr noundef %10)
  store i32 %72, ptr %9, align 4, !tbaa !3
  %73 = icmp ne i32 %72, 0
  br i1 %73, label %74, label %75

74:                                               ; preds = %66
  br label %78

75:                                               ; preds = %66
  br label %76

76:                                               ; preds = %75
  br label %77

77:                                               ; preds = %76
  br label %78

78:                                               ; preds = %77, %74, %62, %50, %42, %30, %18
  call void @mbedtls_mpi_free(ptr noundef %10)
  %79 = load i32, ptr %9, align 4, !tbaa !3
  %80 = icmp eq i32 %79, -14
  br i1 %80, label %81, label %82

81:                                               ; preds = %78
  store i32 -19712, ptr %9, align 4, !tbaa !3
  br label %82

82:                                               ; preds = %81, %78
  %83 = load i32, ptr %9, align 4, !tbaa !3
  call void @llvm.lifetime.end.p0(i64 16, ptr %10) #11
  call void @llvm.lifetime.end.p0(i64 4, ptr %9) #11
  ret i32 %83
}