; Function Attrs: nounwind uwtable
define internal fastcc i32 @ecp_randomize_jac(ptr noundef %0, ptr noundef %1, ptr noundef nonnull %2, ptr noundef %3) unnamed_addr #7 {
  %5 = alloca %struct.mbedtls_mpi, align 8
  call void @llvm.lifetime.start.p0(i64 16, ptr nonnull %5) #21
  call void @mbedtls_mpi_init(ptr noundef nonnull %5) #21
  %6 = getelementptr inbounds nuw i8, ptr %0, i64 8
  %7 = call i32 @mbedtls_mpi_random(ptr noundef nonnull %5, i64 noundef 2, ptr noundef nonnull %6, ptr noundef nonnull %2, ptr noundef %3) #21
  %.not = icmp eq i32 %7, 0
  br i1 %.not, label %8, label %20

8:                                                ; preds = %4
  %9 = getelementptr inbounds nuw i8, ptr %1, i64 32
  %10 = call fastcc i32 @mbedtls_mpi_mul_mod(ptr noundef nonnull %0, ptr noundef nonnull %9, ptr noundef nonnull %9, ptr noundef nonnull %5)
  %.not22 = icmp eq i32 %10, 0
  br i1 %.not22, label %11, label %20

11:                                               ; preds = %8
  %12 = getelementptr inbounds nuw i8, ptr %1, i64 16
  %13 = call fastcc i32 @mbedtls_mpi_mul_mod(ptr noundef nonnull %0, ptr noundef nonnull %12, ptr noundef nonnull %12, ptr noundef nonnull %5)
  %.not23 = icmp eq i32 %13, 0
  br i1 %.not23, label %14, label %20

14:                                               ; preds = %11
  %15 = call fastcc i32 @mbedtls_mpi_mul_mod(ptr noundef nonnull %0, ptr noundef nonnull %5, ptr noundef nonnull %5, ptr noundef nonnull %5)
  %.not24 = icmp eq i32 %15, 0
  br i1 %.not24, label %16, label %20

16:                                               ; preds = %14
  %17 = call fastcc i32 @mbedtls_mpi_mul_mod(ptr noundef nonnull %0, ptr noundef nonnull %1, ptr noundef nonnull %1, ptr noundef nonnull %5)
  %.not25 = icmp eq i32 %17, 0
  br i1 %.not25, label %18, label %20

18:                                               ; preds = %16
  %19 = call fastcc i32 @mbedtls_mpi_mul_mod(ptr noundef nonnull %0, ptr noundef nonnull %12, ptr noundef nonnull %12, ptr noundef nonnull %5)
  br label %20

20:                                               ; preds = %18, %16, %14, %11, %8, %4
  %.0 = phi i32 [ %7, %4 ], [ %10, %8 ], [ %13, %11 ], [ %15, %14 ], [ %17, %16 ], [ %19, %18 ]
  call void @mbedtls_mpi_free(ptr noundef nonnull %5) #21
  %21 = icmp eq i32 %.0, -14
  %spec.store.select = select i1 %21, i32 -19712, i32 %.0
  call void @llvm.lifetime.end.p0(i64 16, ptr nonnull %5) #21
  ret i32 %spec.store.select
}